; Function Attrs: mustprogress uwtable
define void @_ZN8facebook6hermes13HermesRuntime22dumpSampledTraceToFileERKNSt7__cxx1112basic_stringIcSt11char_traitsIcESaIcEEE(ptr noundef nonnull align 8 dereferenceable(32) %fileName) local_unnamed_addr #0 align 2 personality ptr @__gxx_personality_v0 {
entry:
  %ec = alloca %"class.std::error_code", align 8
  %os = alloca %"class.llvh::raw_fd_ostream", align 8
  store i32 0, ptr %ec, align 8
  %_M_cat.i = getelementptr inbounds i8, ptr %ec, i64 8
  %call.i5 = tail call noundef nonnull align 8 dereferenceable(8) ptr @_ZNSt3_V215system_categoryEv() #36
  store ptr %call.i5, ptr %_M_cat.i, align 8
  %call = tail call noundef ptr @_ZNKSt7__cxx1112basic_stringIcSt11char_traitsIcESaIcEE5c_strEv(ptr noundef nonnull align 8 dereferenceable(32) %fileName) #37
  %tobool.i.not = icmp eq ptr %call, null
  br i1 %tobool.i.not, label %_ZN4llvh9StringRefC2EPKc.exit, label %cond.true.i

cond.true.i:                                      ; preds = %entry
  %call.i = tail call i64 @strlen(ptr noundef nonnull dereferenceable(1) %call) #38
  br label %_ZN4llvh9StringRefC2EPKc.exit

_ZN4llvh9StringRefC2EPKc.exit:                    ; preds = %entry, %cond.true.i
  %cond.i = phi i64 [ %call.i, %cond.true.i ], [ 0, %entry ]
  call void @_ZN4llvh14raw_fd_ostreamC1ENS_9StringRefERSt10error_codeNS_3sys2fs9OpenFlagsE(ptr noundef nonnull align 8 dereferenceable(72) %os, ptr %call, i64 %cond.i, ptr noundef nonnull align 8 dereferenceable(16) %ec, i32 noundef 1)
  %0 = load i32, ptr %ec, align 8
  %cmp.i.not = icmp eq i32 %0, 0
  br i1 %cmp.i.not, label %if.end, label %if.then

if.then:                                          ; preds = %_ZN4llvh9StringRefC2EPKc.exit
  %exception = call ptr @__cxa_allocate_exception(i64 32) #37
  %agg.tmp2.sroa.0.0.copyload = load i32, ptr %ec, align 8
  %agg.tmp2.sroa.21.0.copyload = load ptr, ptr %_M_cat.i, align 8
  invoke void @_ZNSt12system_errorC2ESt10error_code(ptr noundef nonnull align 8 dereferenceable(32) %exception, i32 %agg.tmp2.sroa.0.0.copyload, ptr %agg.tmp2.sroa.21.0.copyload)
          to label %invoke.cont unwind label %lpad

invoke.cont:                                      ; preds = %if.then
  invoke void @__cxa_throw(ptr nonnull %exception, ptr nonnull @_ZTISt12system_error, ptr nonnull @_ZNSt12system_errorD1Ev) #39
          to label %unreachable unwind label %lpad3

lpad:                                             ; preds = %if.then
  %1 = landingpad { ptr, i32 }
          cleanup
  call void @__cxa_free_exception(ptr %exception) #37
  br label %ehcleanup

lpad3:                                            ; preds = %if.end, %invoke.cont
  %2 = landingpad { ptr, i32 }
          cleanup
  br label %ehcleanup

if.end:                                           ; preds = %_ZN4llvh9StringRefC2EPKc.exit
  invoke void @_ZN6hermes2vm16SamplingProfiler21dumpChromeTraceGlobalERN4llvh11raw_ostreamE(ptr noundef nonnull align 8 dereferenceable(36) %os)
          to label %invoke.cont4 unwind label %lpad3

invoke.cont4:                                     ; preds = %if.end
  call void @_ZN4llvh14raw_fd_ostreamD1Ev(ptr noundef nonnull align 8 dereferenceable(72) %os) #37
  ret void

ehcleanup:                                        ; preds = %lpad3, %lpad
  %.pn = phi { ptr, i32 } [ %2, %lpad3 ], [ %1, %lpad ]
  call void @_ZN4llvh14raw_fd_ostreamD1Ev(ptr noundef nonnull align 8 dereferenceable(72) %os) #37
  resume { ptr, i32 } %.pn

unreachable:                                      ; preds = %invoke.cont
  unreachable
}